target datalayout = "e-m:e-p270:32:32-p271:32:32-p272:64:64-i64:64-i128:128-f80:128-n8:16:32:64-S128"
target triple = "x86_64-pc-linux-gnu"

%struct.archive_write = type { %struct.archive, i32, i64, i64, ptr, i64, ptr, ptr, ptr, ptr, ptr, i32, i32, ptr, ptr, ptr, ptr, ptr, ptr, ptr, ptr, ptr, ptr, ptr, ptr, ptr, ptr }
%struct.archive = type { i32, i32, ptr, i32, ptr, i32, i32, ptr, %struct.archive_string, ptr, i32, i32, ptr, ptr, i64, i64, i64, i8, i64 }
%struct.archive_string = type { ptr, i64, i64 }
%struct.v7tar = type { i64, i64, ptr, ptr, i32 }

; Function Attrs: nounwind uwtable
define internal i64 @archive_write_v7tar_data(ptr noundef %0, ptr noundef %1, i64 noundef %2) #0 {
  %4 = alloca i64, align 8
  %5 = alloca ptr, align 8
  %6 = alloca ptr, align 8
  %7 = alloca i64, align 8
  %8 = alloca ptr, align 8
  %9 = alloca i32, align 4
  %10 = alloca i32, align 4
  store ptr %0, ptr %5, align 8, !tbaa !9
  store ptr %1, ptr %6, align 8, !tbaa !48
  store i64 %2, ptr %7, align 8, !tbaa !45
  call void @llvm.lifetime.start.p0(i64 8, ptr %8) #8
  call void @llvm.lifetime.start.p0(i64 4, ptr %9) #8
  %11 = load ptr, ptr %5, align 8, !tbaa !9
  %12 = getelementptr inbounds nuw %struct.archive_write, ptr %11, i32 0, i32 15
  %13 = load ptr, ptr %12, align 8, !tbaa !24
  store ptr %13, ptr %8, align 8, !tbaa !22
  %14 = load i64, ptr %7, align 8, !tbaa !45
  %15 = load ptr, ptr %8, align 8, !tbaa !22
  %16 = getelementptr inbounds nuw %struct.v7tar, ptr %15, i32 0, i32 0
  %17 = load i64, ptr %16, align 8, !tbaa !46
  %18 = icmp ugt i64 %14, %17
  br i1 %18, label %19, label %23

19:                                               ; preds = %3
  %20 = load ptr, ptr %8, align 8, !tbaa !22
  %21 = getelementptr inbounds nuw %struct.v7tar, ptr %20, i32 0, i32 0
  %22 = load i64, ptr %21, align 8, !tbaa !46
  store i64 %22, ptr %7, align 8, !tbaa !45
  br label %23

23:                                               ; preds = %19, %3
  %24 = load ptr, ptr %5, align 8, !tbaa !9
  %25 = load ptr, ptr %6, align 8, !tbaa !48
  %26 = load i64, ptr %7, align 8, !tbaa !45
  %27 = call i32 @__archive_write_output(ptr noundef %24, ptr noundef %25, i64 noundef %26)
  store i32 %27, ptr %9, align 4, !tbaa !11
  %28 = load i64, ptr %7, align 8, !tbaa !45
  %29 = load ptr, ptr %8, align 8, !tbaa !22
  %30 = getelementptr inbounds nuw %struct.v7tar, ptr %29, i32 0, i32 0
  %31 = load i64, ptr %30, align 8, !tbaa !46
  %32 = sub i64 %31, %28
  store i64 %32, ptr %30, align 8, !tbaa !46
  %33 = load i32, ptr %9, align 4, !tbaa !11
  %34 = icmp ne i32 %33, 0
  br i1 %34, label %35, label %38

35:                                               ; preds = %23
  %36 = load i32, ptr %9, align 4, !tbaa !11
  %37 = sext i32 %36 to i64
  store i64 %37, ptr %4, align 8
  store i32 1, ptr %10, align 4
  br label %40

38:                                               ; preds = %23
  %39 = load i64, ptr %7, align 8, !tbaa !45
  store i64 %39, ptr %4, align 8
  store i32 1, ptr %10, align 4
  br label %40

40:                                               ; preds = %38, %35
  call void @llvm.lifetime.end.p0(i64 4, ptr %9) #8
  call void @llvm.lifetime.end.p0(i64 8, ptr %8) #8
  %41 = load i64, ptr %4, align 8
  ret i64 %41
}